; Function Attrs: mustprogress nofree nounwind willreturn memory(read) uwtable
define hidden noundef zeroext i1 @_ZNK2cv10PFMDecoder14checkSignatureERKNSt7__cxx1112basic_stringIcSt11char_traitsIcESaIcEEE(ptr nonnull readnone align 8 captures(none) %0, ptr noundef nonnull readonly align 8 captures(none) dereferenceable(32) %1) unnamed_addr #10 align 2 {
  %3 = getelementptr inbounds nuw i8, ptr %1, i64 8
  %4 = load i64, ptr %3, align 8, !tbaa !22
  %5 = icmp ugt i64 %4, 2
  br i1 %5, label %6, label %19

6:                                                ; preds = %2
  %7 = load ptr, ptr %1, align 8, !tbaa !17
  %8 = load i8, ptr %7, align 1, !tbaa !68
  %9 = icmp eq i8 %8, 80
  br i1 %9, label %10, label %19

10:                                               ; preds = %6
  %11 = getelementptr inbounds nuw i8, ptr %7, i64 1
  %12 = load i8, ptr %11, align 1, !tbaa !68
  switch i8 %12, label %19 [
    i8 102, label %13
    i8 70, label %13
  ]

13:                                               ; preds = %10, %10
  %14 = getelementptr inbounds nuw i8, ptr %7, i64 2
  %15 = load i8, ptr %14, align 1, !tbaa !68
  %16 = sext i8 %15 to i32
  %17 = tail call i32 @isspace(i32 noundef %16) #25
  %18 = icmp ne i32 %17, 0
  br label %19

19:                                               ; preds = %10, %13, %6, %2
  %20 = phi i1 [ false, %6 ], [ false, %2 ], [ %18, %13 ], [ false, %10 ]
  ret i1 %20
}